; ModuleID = '6/139.c'
source_filename = "6/139.c"
target datalayout = "e-m:e-p270:32:32-p271:32:32-p272:64:64-i64:64-f80:128-n8:16:32:64-S128"
target triple = "x86_64-pc-linux-gnu"

@.str = private unnamed_addr constant [3 x i8] c"%d\00", align 1
@.str.1 = private unnamed_addr constant [6 x i8] c"%d %d\00", align 1
@.str.2 = private unnamed_addr constant [4 x i8] c"%d\0A\00", align 1

; Function Attrs: noinline nounwind uwtable
define dso_local i32 @main() #0 {
  %1 = alloca i32, align 4
  %2 = alloca i32, align 4
  %3 = alloca i32, align 4
  %4 = alloca i32, align 4
  %5 = alloca i32, align 4
  %6 = alloca i32, align 4
  %7 = alloca i32, align 4
  %8 = alloca i32, align 4
  %9 = alloca i32*, align 8
  %10 = alloca i32, align 4
  %11 = alloca i32, align 4
  %12 = alloca i32*, align 8
  store i32 0, i32* %1, align 4
  store i32 0, i32* %10, align 4
  store i32 0, i32* %11, align 4
  %13 = call noalias i8* @malloc(i64 40000) #3
  %14 = bitcast i8* %13 to i32*
  store i32* %14, i32** %9, align 8
  %15 = call i32 (i8*, ...) @__isoc99_scanf(i8* getelementptr inbounds ([3 x i8], [3 x i8]* @.str, i64 0, i64 0), i32* %6)
  %16 = call noalias i8* @malloc(i64 4000) #3
  %17 = bitcast i8* %16 to i32*
  store i32* %17, i32** %12, align 8
  store i32 0, i32* %2, align 4
  br label %18

18:                                               ; preds = %86, %0
  %19 = load i32, i32* %2, align 4
  %20 = load i32, i32* %6, align 4
  %21 = icmp slt i32 %19, %20
  br i1 %21, label %22, label %89

22:                                               ; preds = %18
  %23 = call i32 (i8*, ...) @__isoc99_scanf(i8* getelementptr inbounds ([6 x i8], [6 x i8]* @.str.1, i64 0, i64 0), i32* %7, i32* %8)
  store i32 0, i32* %3, align 4
  br label %24

24:                                               ; preds = %43, %22
  %25 = load i32, i32* %3, align 4
  %26 = load i32, i32* %7, align 4
  %27 = load i32, i32* %8, align 4
  %28 = mul nsw i32 %26, %27
  %29 = icmp slt i32 %25, %28
  br i1 %29, label %30, label %46

30:                                               ; preds = %24
  %31 = load i32*, i32** %9, align 8
  %32 = load i32, i32* %3, align 4
  %33 = sext i32 %32 to i64
  %34 = getelementptr inbounds i32, i32* %31, i64 %33
  %35 = call i32 (i8*, ...) @__isoc99_scanf(i8* getelementptr inbounds ([3 x i8], [3 x i8]* @.str, i64 0, i64 0), i32* %34)
  %36 = load i32, i32* %10, align 4
  %37 = load i32*, i32** %9, align 8
  %38 = load i32, i32* %3, align 4
  %39 = sext i32 %38 to i64
  %40 = getelementptr inbounds i32, i32* %37, i64 %39
  %41 = load i32, i32* %40, align 4
  %42 = add nsw i32 %36, %41
  store i32 %42, i32* %10, align 4
  br label %43

43:                                               ; preds = %30
  %44 = load i32, i32* %3, align 4
  %45 = add nsw i32 %44, 1
  store i32 %45, i32* %3, align 4
  br label %24

46:                                               ; preds = %24
  store i32 1, i32* %4, align 4
  br label %47

47:                                               ; preds = %75, %46
  %48 = load i32, i32* %4, align 4
  %49 = load i32, i32* %7, align 4
  %50 = sub nsw i32 %49, 1
  %51 = icmp slt i32 %48, %50
  br i1 %51, label %52, label %78

52:                                               ; preds = %47
  store i32 1, i32* %5, align 4
  br label %53

53:                                               ; preds = %71, %52
  %54 = load i32, i32* %5, align 4
  %55 = load i32, i32* %8, align 4
  %56 = sub nsw i32 %55, 1
  %57 = icmp slt i32 %54, %56
  br i1 %57, label %58, label %74

58:                                               ; preds = %53
  %59 = load i32*, i32** %9, align 8
  %60 = load i32, i32* %4, align 4
  %61 = load i32, i32* %8, align 4
  %62 = mul nsw i32 %60, %61
  %63 = sext i32 %62 to i64
  %64 = getelementptr inbounds i32, i32* %59, i64 %63
  %65 = load i32, i32* %5, align 4
  %66 = sext i32 %65 to i64
  %67 = getelementptr inbounds i32, i32* %64, i64 %66
  %68 = load i32, i32* %67, align 4
  %69 = load i32, i32* %11, align 4
  %70 = add nsw i32 %69, %68
  store i32 %70, i32* %11, align 4
  br label %71

71:                                               ; preds = %58
  %72 = load i32, i32* %5, align 4
  %73 = add nsw i32 %72, 1
  store i32 %73, i32* %5, align 4
  br label %53

74:                                               ; preds = %53
  br label %75

75:                                               ; preds = %74
  %76 = load i32, i32* %4, align 4
  %77 = add nsw i32 %76, 1
  store i32 %77, i32* %4, align 4
  br label %47

78:                                               ; preds = %47
  %79 = load i32, i32* %10, align 4
  %80 = load i32, i32* %11, align 4
  %81 = sub nsw i32 %79, %80
  %82 = load i32*, i32** %12, align 8
  %83 = load i32, i32* %2, align 4
  %84 = sext i32 %83 to i64
  %85 = getelementptr inbounds i32, i32* %82, i64 %84
  store i32 %81, i32* %85, align 4
  store i32 0, i32* %10, align 4
  store i32 0, i32* %11, align 4
  br label %86

86:                                               ; preds = %78
  %87 = load i32, i32* %2, align 4
  %88 = add nsw i32 %87, 1
  store i32 %88, i32* %2, align 4
  br label %18

89:                                               ; preds = %18
  store i32 0, i32* %2, align 4
  br label %90

90:                                               ; preds = %101, %89
  %91 = load i32, i32* %2, align 4
  %92 = load i32, i32* %6, align 4
  %93 = icmp slt i32 %91, %92
  br i1 %93, label %94, label %104

94:                                               ; preds = %90
  %95 = load i32*, i32** %12, align 8
  %96 = load i32, i32* %2, align 4
  %97 = sext i32 %96 to i64
  %98 = getelementptr inbounds i32, i32* %95, i64 %97
  %99 = load i32, i32* %98, align 4
  %100 = call i32 (i8*, ...) @printf(i8* getelementptr inbounds ([4 x i8], [4 x i8]* @.str.2, i64 0, i64 0), i32 %99)
  br label %101

101:                                              ; preds = %94
  %102 = load i32, i32* %2, align 4
  %103 = add nsw i32 %102, 1
  store i32 %103, i32* %2, align 4
  br label %90

104:                                              ; preds = %90
  %105 = load i32, i32* %1, align 4
  ret i32 %105
}

; Function Attrs: nounwind
declare dso_local noalias i8* @malloc(i64) #1

declare dso_local i32 @__isoc99_scanf(i8*, ...) #2

declare dso_local i32 @printf(i8*, ...) #2


!llvm.module.flags = !{!0}
!llvm.ident = !{!1}

!0 = !{i32 1, !"wchar_size", i32 4}
!1 = !{!"clang version 10.0.0-4ubuntu1 "}
